target datalayout = "e-m:e-p270:32:32-p271:32:32-p272:64:64-i64:64-i128:128-f80:128-n8:16:32:64-S128"
target triple = "x86_64-pc-linux-gnu"

%struct.avifScalingMode = type { %struct.avifFraction, %struct.avifFraction }
%struct.avifFraction = type { i32, i32 }
%struct.avifEncoder = type { i32, i32, i32, i32, i64, i32, i32, i32, i32, i32, i32, i32, i32, i32, i32, i32, %struct.avifScalingMode, %struct.avifIOStats, %struct.avifDiagnostics, ptr, ptr, i32 }
%struct.avifIOStats = type { i64, i64 }
%struct.avifDiagnostics = type { [256 x i8] }

; Function Attrs: nounwind uwtable
define hidden i32 @avifEncoderAddImage(ptr noundef %0, ptr noundef %1, i64 noundef %2, i32 noundef %3) #0 {
  %5 = alloca ptr, align 8
  %6 = alloca ptr, align 8
  %7 = alloca i64, align 8
  %8 = alloca i32, align 4
  store ptr %0, ptr %5, align 8
  store ptr %1, ptr %6, align 8
  store i64 %2, ptr %7, align 8
  store i32 %3, ptr %8, align 4
  %9 = load ptr, ptr %5, align 8
  %10 = getelementptr inbounds nuw %struct.avifEncoder, ptr %9, i32 0, i32 18
  call void @avifDiagnosticsClearError(ptr noundef %10)
  %11 = load ptr, ptr %5, align 8
  %12 = load i64, ptr %7, align 8
  %13 = load i32, ptr %8, align 4
  %14 = call i32 @avifEncoderAddImageInternal(ptr noundef %11, i32 noundef 1, i32 noundef 1, ptr noundef %6, i64 noundef %12, i32 noundef %13)
  ret i32 %14
}

; Function Attrs: nounwind uwtable
define hidden i32 @avifEncoderWrite(ptr noundef %0, ptr noundef %1, ptr noundef %2) #0 {
  %4 = alloca i32, align 4
  %5 = alloca ptr, align 8
  %6 = alloca ptr, align 8
  %7 = alloca ptr, align 8
  %8 = alloca i32, align 4
  store ptr %0, ptr %5, align 8
  store ptr %1, ptr %6, align 8
  store ptr %2, ptr %7, align 8
  %9 = load ptr, ptr %5, align 8
  %10 = load ptr, ptr %6, align 8
  %11 = call i32 @avifEncoderAddImage(ptr noundef %9, ptr noundef %10, i64 noundef 1, i32 noundef 2)
  store i32 %11, ptr %8, align 4
  %12 = load i32, ptr %8, align 4
  %13 = icmp ne i32 %12, 0
  br i1 %13, label %14, label %16

14:                                               ; preds = %3
  %15 = load i32, ptr %8, align 4
  store i32 %15, ptr %4, align 4
  br label %20

16:                                               ; preds = %3
  %17 = load ptr, ptr %5, align 8
  %18 = load ptr, ptr %7, align 8
  %19 = call i32 @avifEncoderFinish(ptr noundef %17, ptr noundef %18)
  store i32 %19, ptr %4, align 4
  br label %20

20:                                               ; preds = %16, %14
  %21 = load i32, ptr %4, align 4
  ret i32 %21
}