; Function Attrs: nounwind uwtable
define hidden i32 @avifEncoderWrite(ptr noundef %0, ptr noundef %1, ptr noundef %2) local_unnamed_addr #1 {
  %4 = alloca ptr, align 8
  call void @llvm.lifetime.start.p0(i64 8, ptr nonnull %4)
  store ptr %1, ptr %4, align 8
  %5 = getelementptr inbounds nuw i8, ptr %0, i64 104
  tail call void @avifDiagnosticsClearError(ptr noundef nonnull %5) #13
  %6 = call fastcc i32 @avifEncoderAddImageInternal(ptr noundef %0, i32 noundef 1, i32 noundef 1, ptr noundef nonnull %4, i64 noundef 1, i32 noundef 2)
  call void @llvm.lifetime.end.p0(i64 8, ptr nonnull %4)
  %.not = icmp eq i32 %6, 0
  br i1 %.not, label %7, label %9

7:                                                ; preds = %3
  %8 = tail call i32 @avifEncoderFinish(ptr noundef %0, ptr noundef %2)
  br label %9

9:                                                ; preds = %3, %7
  %.0 = phi i32 [ %8, %7 ], [ %6, %3 ]
  ret i32 %.0
}